; Function Attrs: mustprogress nounwind uwtable
define hidden noundef ptr @_ZN13SafePointNode8IdentityEP8PhaseGVN(ptr noundef nonnull align 8 dereferenceable(81) %0, ptr nocapture noundef readonly %1) unnamed_addr #2 align 2 {
  %3 = getelementptr inbounds i8, ptr %0, i64 8
  %4 = load ptr, ptr %3, align 8
  %5 = load ptr, ptr %4, align 8
  %6 = getelementptr inbounds i8, ptr %5, i64 44
  %7 = load i32, ptr %6, align 4
  %8 = and i32 %7, 3
  %9 = icmp eq i32 %8, 3
  br i1 %9, label %10, label %17

10:                                               ; preds = %2
  %11 = tail call noundef ptr @_ZNK4Node23unique_ctrl_out_or_nullEv(ptr noundef nonnull align 8 dereferenceable(52) %0) #15
  %.not = icmp eq ptr %11, null
  br i1 %.not, label %._crit_edge, label %12

._crit_edge:                                      ; preds = %10
  %.pre = load ptr, ptr %3, align 8
  br label %17

12:                                               ; preds = %10
  %13 = getelementptr inbounds i8, ptr %11, i64 44
  %14 = load i32, ptr %13, align 4
  %15 = and i32 %14, 255
  %16 = icmp eq i32 %15, 149
  %.pre12 = load ptr, ptr %3, align 8
  br i1 %16, label %17, label %.sink.split

17:                                               ; preds = %._crit_edge, %12, %2
  %18 = phi ptr [ %.pre, %._crit_edge ], [ %.pre12, %12 ], [ %4, %2 ]
  %19 = load ptr, ptr %18, align 8
  %20 = getelementptr inbounds i8, ptr %19, i64 44
  %21 = load i32, ptr %20, align 4
  %22 = and i32 %21, 15
  %23 = icmp eq i32 %22, 8
  br i1 %23, label %24, label %58

24:                                               ; preds = %17
  %25 = getelementptr inbounds i8, ptr %1, i64 16
  %26 = load ptr, ptr %25, align 8
  %27 = getelementptr inbounds i8, ptr %26, i64 116
  %28 = load i32, ptr %27, align 4
  %.not11 = icmp eq i32 %28, 0
  br i1 %.not11, label %29, label %58

29:                                               ; preds = %24
  %30 = getelementptr inbounds i8, ptr %19, i64 8
  %31 = load ptr, ptr %30, align 8
  %32 = load ptr, ptr %31, align 8
  %33 = getelementptr inbounds i8, ptr %32, i64 44
  %34 = load i32, ptr %33, align 4
  %35 = and i32 %34, 31
  %36 = icmp eq i32 %35, 29
  br i1 %36, label %37, label %44

37:                                               ; preds = %29
  %38 = getelementptr inbounds i8, ptr %32, i64 8
  %39 = load ptr, ptr %38, align 8
  %40 = load ptr, ptr %39, align 8
  %41 = getelementptr inbounds i8, ptr %40, i64 8
  %42 = load ptr, ptr %41, align 8
  %43 = load ptr, ptr %42, align 8
  %.phi.trans.insert = getelementptr inbounds i8, ptr %43, i64 44
  %.pre13 = load i32, ptr %.phi.trans.insert, align 4
  br label %44

44:                                               ; preds = %37, %29
  %45 = phi i32 [ %.pre13, %37 ], [ %34, %29 ]
  %.0 = phi ptr [ %43, %37 ], [ %32, %29 ]
  %46 = and i32 %45, 7
  %47 = icmp eq i32 %46, 7
  br i1 %47, label %48, label %58

48:                                               ; preds = %44
  %49 = load ptr, ptr %.0, align 8
  %50 = getelementptr inbounds i8, ptr %49, i64 216
  %51 = load ptr, ptr %50, align 8
  %52 = tail call noundef zeroext i1 %51(ptr noundef nonnull align 8 dereferenceable(128) %.0) #15
  br i1 %52, label %53, label %58

53:                                               ; preds = %48
  %54 = tail call noundef zeroext i1 @_ZN4Node12has_out_withEi(ptr noundef nonnull align 8 dereferenceable(52) %0, i32 noundef 144) #15
  br i1 %54, label %58, label %55

55:                                               ; preds = %53
  %56 = load ptr, ptr %3, align 8
  br label %.sink.split

.sink.split:                                      ; preds = %12, %55
  %.sink = phi ptr [ %56, %55 ], [ %.pre12, %12 ]
  %57 = load ptr, ptr %.sink, align 8
  br label %58

58:                                               ; preds = %.sink.split, %17, %24, %48, %44, %53
  %.09 = phi ptr [ %0, %53 ], [ %0, %44 ], [ %0, %48 ], [ %0, %24 ], [ %0, %17 ], [ %57, %.sink.split ]
  ret ptr %.09
}